1		0000		        		START:
2		0000		1780			MOVH R7, #80H
3		0002		0E0A			MOVL R6, #0AH
4		0004		        		LD1:
5		0004		1FA3			LD R5, [R7, #3]
6		0006		65FE			BEQZ R5, LD1
7		0008		1F21			LD R1, [R7, #1]
8		000A		        		LD2:
9		000A		1FA3			LD R5, [R7, #3]
10		000C		65FE			BEQZ R5, LD2
11		000E		1F41			LD R2, [R7, #1]
12		0010		        		LD3:
13		0010		1FA3			LD R5, [R7, #3]
14		0012		65FE			BEQZ R5, LD3
15		0014		1F61			LD R3, [R7, #1]
16		0016		        		LD4:
17		0016		1FA3			LD R5, [R7, #3]
18		0018		65FE			BEQZ R5, LD4
19		001A		1F81			LD R4, [R7, #1]
20		001C		        		STS1:
21		001C		1FA4			LD R5,[R7,#4]
22		001E		65FE			BEQZ R5,STS1
23		0020		27C2			ST R6, [R7, #2]
24		0022		        		STS2:
25		0022		1FA4			LD R5,[R7,#4]
26		0024		65FE			BEQZ R5,STS2
27		0026		27C2			ST R6, [R7, #2]
28		0028		        		ST1:
29		0028		1FA4			LD R5,[R7,#4]
30		002A		65FE			BEQZ R5,ST1
31		002C		2742			ST R2, [R7, #2]
32		002E		4910			ADDI R1, #10H
33		0030		        		ST2:
34		0030		1FA4			LD R5, [R7,#4]
35		0032		65FE			BEQZ R5, ST2
36		0034		2722			ST R1, [R7, #2]
37		0036		5110			SUBI R1, #10H
38		0038		        		STP1:
39		0038		1FA4			LD R5,[R7,#4]
40		003A		65FE			BEQZ R5,STP1
41		003C		2702			ST R0,[R7,#2]
42		003E		        		STP2:
43		003E		1FA4			LD R5,[R7,#4]
44		0040		65FE			BEQZ R5,STP2
45		0042		27C2			ST R6,[R7,#2]
46		0044		        		ST3:
47		0044		1FA4			LD R5,[R7,#4]
48		0046		65FE			BEQZ R5,ST3
49		0048		2782			ST R4, [R7, #2]
50		004A		4B10			ADDI R3, #10H
51		004C		        		ST4:
52		004C		1FA4			LD R5, [R7,#4]
53		004E		65FE			BEQZ R5, ST4
54		0050		2762			ST R3, [R7, #2]
55		0052		5310			SUBI R3, #10H
56		0054		0E09			MOVL R6, #9
57		0056		        		STE1:
58		0056		1FA4			LD R5,[R7,#4]
59		0058		65FE			BEQZ R5,STE1
60		005A		27C2			ST R6,[R7,#2]
61		005C		0E0A			MOVL R6, #10
62		005E		        		STE2:
63		005E		1FA4			LD R5,[R7,#4]
64		0060		65FE			BEQZ R5,STE2
65		0062		27C2			ST R6,[R7,#2]
66		0064		4325			ADD R1, R3, R1
67		0066		4449			ADD R2, R4, R2
68		0068		42D4			SGE R5, R2, R6
69		006A		6502			BEQZ R5, NONADD1
70		006C		4901			ADDI R1, #1
71		006E		520A			SUBI R2, #10
72		0070		        		NONADD1:
73		0070		41D4			SGE R5, R1, R6
74		0072		6503			BEQZ R5, NONADD2
75		0074		0B01			MOVL R3, #1
76		0076		510A			SUBI R1, #10
77		0078		7001			J PRINT3
78		007A		        		NONADD2:
79		007A		0B00			MOVL R3, #0
80		007C		        		PRINT3:
81		007C		        		STL:
82		007C		1FA4			LD R5,[R7,#4]
83		007E		65FE			BEQZ R5,STL
84		0080		2742			ST R2,[R7,#2]
85		0082		        		STM:
86		0082		1FA4			LD R5,[R7,#4]
87		0084		65FE			BEQZ R5,STM
88		0086		2722			ST R1,[R7,#2]
89		0088		        		STH:
90		0088		1FA4			LD R5,[R7,#4]
91		008A		65FE			BEQZ R5,STH
92		008C		4B10			ADDI R3, #10H
93		008E		2762			ST R3,[R7,#2]
94		0090		77B7			J START
