1		0000		        		START:
2		0000		70000D		CALL INPUT
3		0003		8A			PUSH A2
4		0004		8B			PUSH A3
5		0005		91			POP A1
6		0006		90			POP A0
7		0007		70000D		CALL INPUT
8		000A		58001A		JMP INPUTOK
9		000D		        		INPUT:
10		000D		        		INPUT1:
11		000D		60000D		JNKB INPUT1
12		0010		438001		LD A3, 8001H
13		0013		        		INPUT2:
14		0013		600013		JNKB INPUT2
15		0016		428001		LD A2, 8001H
16		0019		80			RET
17		001A		        		INPUTOK:
18		001A		487E05		ST A0, 7E05H
19		001D		497E06		ST A1, 7E06H
20		0020		4A7E07		ST A2, 7E07H
21		0023		4B7E08		ST A3, 7E08H
22		0026		28			ADD A0, A2
23		0027		2D			ADD A1, A3
24		0028		3A			SUB A2, A2
25		0029		D0F6			ADD A0, #F6H
26		002B		E805			JLE LESST10
27		002D		D101			ADD A1, #1
28		002F		580034		JMP DECA
29		0032		        		LESST10:
30		0032		D00A			ADD A0, #10
31		0034		        		DECA:
32		0034		D1F6			ADD A1, #F6H
33		0036		E802			JLE LESSTD10
34		0038		D201			ADD A2, #1
35		003A		        		JMP STORE:
36		003A		        		LESSTD10:
37		003A		D10A			ADD A1, #10
38		003C		        		STORE:
39		003C		487E00		ST A0, 7E00H
40		003F		497E01		ST A1, 7E01H
41		0042		4A7E02		ST A2, 7E02H
42		0045		C20A			MOV A2, #0AH
43		0047		7000A4		CALL PRINTC
44		004A		7000A4		CALL PRINTC
45		004D		427E05		LD A2, 7E05H
46		0050		7000A4		CALL PRINTC
47		0053		427E06		LD A2, 7E06H
48		0056		D210			ADD A2, #10H
49		0058		7000A4		CALL PRINTC
50		005B		C20A			MOV A2, #0AH
51		005D		7000A4		CALL PRINTC
52		0060		7000A4		CALL PRINTC
53		0063		427E07		LD A2, 7E07H
54		0066		7000A4		CALL PRINTC
55		0069		427E08		LD A2, 7E08H
56		006C		D210			ADD A2, #10H
57		006E		7000A4		CALL PRINTC
58		0071		580074		JMP SUMMARY
59		0074		        		SUMMARY:
60		0074		C20A			MOV A2, #0AH
61		0076		7000A4		CALL PRINTC
62		0079		7000A4		CALL PRINTC
63		007C		427E00		LD A2, 7E00H
64		007F		7000A4		CALL PRINTC
65		0082		427E01		LD A2, 7E01H
66		0085		407E02		LD A0, 7E02H
67		0088		D000			ADD A0, #0
68		008A		E80D			JLE N2
69		008C		7000A4		CALL PRINTC
70		008F		D010			ADD A0, #10H
71		0091		88			PUSH A0
72		0092		92			POP A2
73		0093		7000A4		CALL PRINTC
74		0096		5800A1		JMP ENDPROGRAM
75		0099		        		N2:
76		0099		D210			ADD A2, #10H
77		009B		7000A4		CALL PRINTC
78		009E		5800A1		JMP ENDPROGRAM
79		00A1		        		ENDPROGRAM:
80		00A1		5800A1		JMP ENDPROGRAM
81		00A4		        		PRINTC:
82		00A4		        		APC:
83		00A4		6800A4		JNPB APC
84		00A7		4A8002		ST A2, 8002H
85		00AA		80			RET
