1		0000		        		START:
2		0000		C20A			MOV A2, #0AH
3		0002		        		WPR1:
4		0002		680002		JNPB WPR1
5		0005		4A8002		ST A2, 8002H
6		0008		        		WPR2:
7		0008		680008		JNPB WPR2
8		000B		4A8002		ST A2, 8002H
9		000E		        		WKB12:
10		000E		60000E		JNKB WKB12
11		0011		428001		LD A2, 8001H
12		0014		4A0100		ST A2, 100H
13		0017		        		WKB11:
14		0017		600017		JNKB WKB11
15		001A		428001		LD A2, 8001H
16		001D		4A0101		ST A2, 101H
17		0020		        		WPR11:
18		0020		680020		JNPB WPR11
19		0023		420101		LD A2, 101H
20		0026		4A8002		ST A2, 8002H
21		0029		        		WPR12:
22		0029		420100		LD A2, 100H
23		002C		D210			ADD A2, #10H
24		002E		680029		JNPB WPR12
25		0031		4A8002		ST A2, 8002H
26		0034		        		WPR3:
27		0034		C200			MOV A2, #00H
28		0036		680034		JNPB WPR3
29		0039		4A8002		ST A2, 8002H
30		003C		        		WPR4:
31		003C		C20A			MOV A2, #0AH
32		003E		68003C		JNPB WPR4
33		0041		4A8002		ST A2, 8002H
34		0044		        		WKB22:
35		0044		600044		JNKB WKB22
36		0047		428001		LD A2, 8001H
37		004A		4A0102		ST A2, 102H
38		004D		        		WKB21:
39		004D		60004D		JNKB WKB21
40		0050		428001		LD A2, 8001H
41		0053		4A0103		ST A2, 103H
42		0056		        		WPR21:
43		0056		680056		JNPB WPR21
44		0059		420103		LD A2, 103H
45		005C		4A8002		ST A2, 8002H
46		005F		        		WPR22:
47		005F		420102		LD A2, 102H
48		0062		D210			ADD A2, #10H
49		0064		68005F		JNPB WPR22
50		0067		4A8002		ST A2, 8002H
51		006A		C209			MOV A2, #09H
52		006C		        		WPRS1:
53		006C		68006C		JNPB WPRS1
54		006F		4A8002		ST A2, 8002H
55		0072		C20A			MOV A2, #0AH
56		0074		        		WPRS2:
57		0074		680074		JNPB WPRS2
58		0077		4A8002		ST A2, 8002H
59		007A		410100		LD A1, 100H
60		007D		400101		LD A0, 101H
61		0080		420102		LD A2, 102H
62		0083		29			ADD A1, A2
63		0084		420103		LD A2, 103H
64		0087		28			ADD A0, A2
65		0088		3A			SUB A2, A2
66		0089		C30A			MOV A3, #10
67		008B		3C			SUB A0, A3
68		008C		E805			JLE LESST10
69		008E		D101			ADD A1, #1
70		0090		580095		JMP DECA
71		0093		        		LESST10:
72		0093		D00A			ADD A0, #10
73		0095		        		DECA:
74		0095		3D			SUB A1, A3
75		0096		E805			JLE LESSTD10
76		0098		D201			ADD A2, #1
77		009A		5800B0		JMP PRINT3
78		009D		        		LESSTD10:
79		009D		D10A			ADD A1, #10
80		009F		        		PRINT:
81		009F		        		WPRA1:
82		009F		68009F		JNPB WPRA1
83		00A2		488002		ST A0, 8002H
84		00A5		        		WPRA2:
85		00A5		6800A5		JNPB WPRA2
86		00A8		D110			ADD A1, #10H
87		00AA		498002		ST A1, 8002H
88		00AD		5800C4		JMP END
89		00B0		        		PRINT3:
90		00B0		        		WPRA13:
91		00B0		6800B0		JNPB WPRA13
92		00B3		488002		ST A0, 8002H
93		00B6		        		WPRA23:
94		00B6		6800B6		JNPB WPRA23
95		00B9		498002		ST A1, 8002H
96		00BC		        		WPRA33:
97		00BC		6800BC		JNPB WPRA33
98		00BF		D210			ADD A2, #10H
99		00C1		4A8002		ST A2, 8002H
100		00C4		        		END:
101		00C4		580000		JMP START
